target datalayout = "e-m:e-p270:32:32-p271:32:32-p272:64:64-i64:64-i128:128-f80:128-n8:16:32:64-S128"
target triple = "x86_64-pc-linux-gnu"

%struct.casadi_mem = type { ptr, i64, i64, i64, i64, ptr, ptr, ptr, ptr, i32, i64, i64, ptr, ptr }
%struct.casadi_functions = type { ptr, ptr, ptr, ptr, ptr, ptr, ptr, ptr, ptr, ptr, ptr, ptr, ptr }

@.str = private unnamed_addr constant [5 x i8] c"---\0A\00", align 1
@.str.2 = private unnamed_addr constant [2 x i8] c"\0A\00", align 1
@.str.25 = private unnamed_addr constant [16 x i8] c"result (0): %g\0A\00", align 1
@.str.26 = private unnamed_addr constant [27 x i8] c"result (1): [%g,%g;%g,%g]\0A\00", align 1
@.str.38 = private unnamed_addr constant [37 x i8] c"Usage from C/C++ with casadi/mem.h:\0A\00", align 1
@.str.39 = private unnamed_addr constant [16 x i8] c"./f_with_mem.so\00", align 1
@.str.40 = private unnamed_addr constant [37 x i8] c"Cannot open f_with_mem.so, error %s\0A\00", align 1
@.str.41 = private unnamed_addr constant [12 x i8] c"f_functions\00", align 1
@__const._Z16usage_c_with_memv.x_val = private unnamed_addr constant [4 x double] [double 1.000000e+00, double 2.000000e+00, double 3.000000e+00, double 4.000000e+00], align 16

; Function Attrs: mustprogress uwtable
define linkonce_odr void @casadi_deinit(ptr noundef %0) #0 comdat {
  %2 = alloca ptr, align 8
  store ptr %0, ptr %2, align 8
  %3 = load ptr, ptr %2, align 8
  %4 = getelementptr inbounds %struct.casadi_mem, ptr %3, i32 0, i32 0
  %5 = load ptr, ptr %4, align 8
  %6 = getelementptr inbounds %struct.casadi_functions, ptr %5, i32 0, i32 3
  %7 = load ptr, ptr %6, align 8
  %8 = load ptr, ptr %2, align 8
  %9 = getelementptr inbounds %struct.casadi_mem, ptr %8, i32 0, i32 9
  %10 = load i32, ptr %9, align 8
  call void %7(i32 noundef %10)
  %11 = load ptr, ptr %2, align 8
  %12 = getelementptr inbounds %struct.casadi_mem, ptr %11, i32 0, i32 0
  %13 = load ptr, ptr %12, align 8
  %14 = getelementptr inbounds %struct.casadi_functions, ptr %13, i32 0, i32 1
  %15 = load ptr, ptr %14, align 8
  %16 = icmp ne ptr %15, null
  br i1 %16, label %17, label %23

17:                                               ; preds = %1
  %18 = load ptr, ptr %2, align 8
  %19 = getelementptr inbounds %struct.casadi_mem, ptr %18, i32 0, i32 0
  %20 = load ptr, ptr %19, align 8
  %21 = getelementptr inbounds %struct.casadi_functions, ptr %20, i32 0, i32 1
  %22 = load ptr, ptr %21, align 8
  call void %22()
  br label %23

23:                                               ; preds = %17, %1
  ret void
}

; Function Attrs: mustprogress uwtable
define linkonce_odr void @casadi_init(ptr noundef %0, ptr noundef %1) #0 comdat {
  %3 = alloca ptr, align 8
  %4 = alloca ptr, align 8
  store ptr %0, ptr %3, align 8
  store ptr %1, ptr %4, align 8
  %5 = load ptr, ptr %4, align 8
  %6 = load ptr, ptr %3, align 8
  %7 = getelementptr inbounds %struct.casadi_mem, ptr %6, i32 0, i32 0
  store ptr %5, ptr %7, align 8
  %8 = load ptr, ptr %4, align 8
  %9 = getelementptr inbounds %struct.casadi_functions, ptr %8, i32 0, i32 0
  %10 = load ptr, ptr %9, align 8
  %11 = icmp ne ptr %10, null
  br i1 %11, label %12, label %16

12:                                               ; preds = %2
  %13 = load ptr, ptr %4, align 8
  %14 = getelementptr inbounds %struct.casadi_functions, ptr %13, i32 0, i32 0
  %15 = load ptr, ptr %14, align 8
  call void %15()
  br label %16

16:                                               ; preds = %12, %2
  %17 = load ptr, ptr %4, align 8
  %18 = getelementptr inbounds %struct.casadi_functions, ptr %17, i32 0, i32 5
  %19 = load ptr, ptr %18, align 8
  %20 = icmp ne ptr %19, null
  br i1 %20, label %21, label %26

21:                                               ; preds = %16
  %22 = load ptr, ptr %4, align 8
  %23 = getelementptr inbounds %struct.casadi_functions, ptr %22, i32 0, i32 5
  %24 = load ptr, ptr %23, align 8
  %25 = call noundef i64 %24()
  br label %27

26:                                               ; preds = %16
  br label %27

27:                                               ; preds = %26, %21
  %28 = phi i64 [ %25, %21 ], [ 1, %26 ]
  %29 = load ptr, ptr %3, align 8
  %30 = getelementptr inbounds %struct.casadi_mem, ptr %29, i32 0, i32 10
  store i64 %28, ptr %30, align 8
  %31 = load ptr, ptr %4, align 8
  %32 = getelementptr inbounds %struct.casadi_functions, ptr %31, i32 0, i32 6
  %33 = load ptr, ptr %32, align 8
  %34 = icmp ne ptr %33, null
  br i1 %34, label %35, label %40

35:                                               ; preds = %27
  %36 = load ptr, ptr %4, align 8
  %37 = getelementptr inbounds %struct.casadi_functions, ptr %36, i32 0, i32 6
  %38 = load ptr, ptr %37, align 8
  %39 = call noundef i64 %38()
  br label %41

40:                                               ; preds = %27
  br label %41

41:                                               ; preds = %40, %35
  %42 = phi i64 [ %39, %35 ], [ 1, %40 ]
  %43 = load ptr, ptr %3, align 8
  %44 = getelementptr inbounds %struct.casadi_mem, ptr %43, i32 0, i32 11
  store i64 %42, ptr %44, align 8
  %45 = load ptr, ptr %3, align 8
  %46 = getelementptr inbounds %struct.casadi_mem, ptr %45, i32 0, i32 10
  %47 = load i64, ptr %46, align 8
  %48 = load ptr, ptr %3, align 8
  %49 = getelementptr inbounds %struct.casadi_mem, ptr %48, i32 0, i32 1
  store i64 %47, ptr %49, align 8
  %50 = load ptr, ptr %3, align 8
  %51 = getelementptr inbounds %struct.casadi_mem, ptr %50, i32 0, i32 11
  %52 = load i64, ptr %51, align 8
  %53 = load ptr, ptr %3, align 8
  %54 = getelementptr inbounds %struct.casadi_mem, ptr %53, i32 0, i32 2
  store i64 %52, ptr %54, align 8
  %55 = load ptr, ptr %3, align 8
  %56 = getelementptr inbounds %struct.casadi_mem, ptr %55, i32 0, i32 4
  store i64 0, ptr %56, align 8
  %57 = load ptr, ptr %3, align 8
  %58 = getelementptr inbounds %struct.casadi_mem, ptr %57, i32 0, i32 3
  store i64 0, ptr %58, align 8
  %59 = load ptr, ptr %4, align 8
  %60 = getelementptr inbounds %struct.casadi_functions, ptr %59, i32 0, i32 11
  %61 = load ptr, ptr %60, align 8
  %62 = icmp ne ptr %61, null
  br i1 %62, label %63, label %76

63:                                               ; preds = %41
  %64 = load ptr, ptr %4, align 8
  %65 = getelementptr inbounds %struct.casadi_functions, ptr %64, i32 0, i32 11
  %66 = load ptr, ptr %65, align 8
  %67 = load ptr, ptr %3, align 8
  %68 = getelementptr inbounds %struct.casadi_mem, ptr %67, i32 0, i32 1
  %69 = load ptr, ptr %3, align 8
  %70 = getelementptr inbounds %struct.casadi_mem, ptr %69, i32 0, i32 2
  %71 = load ptr, ptr %3, align 8
  %72 = getelementptr inbounds %struct.casadi_mem, ptr %71, i32 0, i32 3
  %73 = load ptr, ptr %3, align 8
  %74 = getelementptr inbounds %struct.casadi_mem, ptr %73, i32 0, i32 4
  %75 = call noundef i32 %66(ptr noundef %68, ptr noundef %70, ptr noundef %72, ptr noundef %74)
  br label %76

76:                                               ; preds = %63, %41
  %77 = load ptr, ptr %4, align 8
  %78 = getelementptr inbounds %struct.casadi_functions, ptr %77, i32 0, i32 2
  %79 = load ptr, ptr %78, align 8
  %80 = call noundef i32 %79()
  %81 = load ptr, ptr %3, align 8
  %82 = getelementptr inbounds %struct.casadi_mem, ptr %81, i32 0, i32 9
  store i32 %80, ptr %82, align 8
  %83 = load ptr, ptr %3, align 8
  %84 = getelementptr inbounds %struct.casadi_mem, ptr %83, i32 0, i32 12
  store ptr null, ptr %84, align 8
  %85 = load ptr, ptr %3, align 8
  %86 = getelementptr inbounds %struct.casadi_mem, ptr %85, i32 0, i32 13
  store ptr null, ptr %86, align 8
  %87 = load ptr, ptr %3, align 8
  %88 = getelementptr inbounds %struct.casadi_mem, ptr %87, i32 0, i32 5
  store ptr null, ptr %88, align 8
  %89 = load ptr, ptr %3, align 8
  %90 = getelementptr inbounds %struct.casadi_mem, ptr %89, i32 0, i32 6
  store ptr null, ptr %90, align 8
  %91 = load ptr, ptr %3, align 8
  %92 = getelementptr inbounds %struct.casadi_mem, ptr %91, i32 0, i32 7
  store ptr null, ptr %92, align 8
  %93 = load ptr, ptr %3, align 8
  %94 = getelementptr inbounds %struct.casadi_mem, ptr %93, i32 0, i32 8
  store ptr null, ptr %94, align 8
  ret void
}

; Function Attrs: mustprogress uwtable
define linkonce_odr void @casadi_free(ptr noundef %0) #0 comdat {
  %2 = alloca ptr, align 8
  store ptr %0, ptr %2, align 8
  %3 = load ptr, ptr %2, align 8
  call void @casadi_free_arrays(ptr noundef %3)
  %4 = load ptr, ptr %2, align 8
  call void @casadi_deinit(ptr noundef %4)
  %5 = load ptr, ptr %2, align 8
  call void @free(ptr noundef %5) #6
  ret void
}

; Function Attrs: mustprogress uwtable
define linkonce_odr i32 @casadi_eval(ptr noundef %0) #0 comdat {
  %2 = alloca ptr, align 8
  store ptr %0, ptr %2, align 8
  %3 = load ptr, ptr %2, align 8
  %4 = getelementptr inbounds %struct.casadi_mem, ptr %3, i32 0, i32 0
  %5 = load ptr, ptr %4, align 8
  %6 = getelementptr inbounds %struct.casadi_functions, ptr %5, i32 0, i32 12
  %7 = load ptr, ptr %6, align 8
  %8 = load ptr, ptr %2, align 8
  %9 = getelementptr inbounds %struct.casadi_mem, ptr %8, i32 0, i32 5
  %10 = load ptr, ptr %9, align 8
  %11 = load ptr, ptr %2, align 8
  %12 = getelementptr inbounds %struct.casadi_mem, ptr %11, i32 0, i32 6
  %13 = load ptr, ptr %12, align 8
  %14 = load ptr, ptr %2, align 8
  %15 = getelementptr inbounds %struct.casadi_mem, ptr %14, i32 0, i32 7
  %16 = load ptr, ptr %15, align 8
  %17 = load ptr, ptr %2, align 8
  %18 = getelementptr inbounds %struct.casadi_mem, ptr %17, i32 0, i32 8
  %19 = load ptr, ptr %18, align 8
  %20 = load ptr, ptr %2, align 8
  %21 = getelementptr inbounds %struct.casadi_mem, ptr %20, i32 0, i32 9
  %22 = load i32, ptr %21, align 8
  %23 = call noundef i32 %7(ptr noundef %10, ptr noundef %13, ptr noundef %16, ptr noundef %19, i32 noundef %22)
  ret i32 %23
}

; Function Attrs: mustprogress uwtable
define linkonce_odr ptr @casadi_alloc(ptr noundef %0) #0 comdat {
  %2 = alloca ptr, align 8
  %3 = alloca ptr, align 8
  store ptr %0, ptr %2, align 8
  %4 = call noalias ptr @malloc(i64 noundef 112) #19
  store ptr %4, ptr %3, align 8
  %5 = load ptr, ptr %3, align 8
  %6 = load ptr, ptr %2, align 8
  call void @casadi_init(ptr noundef %5, ptr noundef %6)
  %7 = load ptr, ptr %3, align 8
  %8 = call i32 @casadi_alloc_arrays(ptr noundef %7)
  %9 = load ptr, ptr %3, align 8
  call void @casadi_init_arrays(ptr noundef %9)
  %10 = load ptr, ptr %3, align 8
  ret ptr %10
}

; Function Attrs: mustprogress uwtable
define noundef i32 @_Z16usage_c_with_memv() #0 {
  %1 = alloca i32, align 4
  %2 = alloca ptr, align 8
  %3 = alloca ptr, align 8
  %4 = alloca ptr, align 8
  %5 = alloca ptr, align 8
  %6 = alloca [4 x double], align 16
  %7 = alloca double, align 8
  %8 = alloca double, align 8
  %9 = alloca [4 x double], align 16
  %10 = call i32 (ptr, ...) @printf(ptr noundef @.str)
  %11 = call i32 (ptr, ...) @printf(ptr noundef @.str.38)
  %12 = call i32 (ptr, ...) @printf(ptr noundef @.str.2)
  %13 = call ptr @dlopen(ptr noundef @.str.39, i32 noundef 1) #6
  store ptr %13, ptr %2, align 8
  %14 = load ptr, ptr %2, align 8
  %15 = icmp eq ptr %14, null
  br i1 %15, label %16, label %19

16:                                               ; preds = %0
  %17 = call ptr @dlerror() #6
  %18 = call i32 (ptr, ...) @printf(ptr noundef @.str.40, ptr noundef %17)
  store i32 1, ptr %1, align 4
  br label %64

19:                                               ; preds = %0
  %20 = call ptr @dlerror() #6
  %21 = load ptr, ptr %2, align 8
  %22 = call ptr @dlsym(ptr noundef %21, ptr noundef @.str.41) #6
  store ptr %22, ptr %3, align 8
  %23 = call ptr @dlerror() #6
  %24 = icmp ne ptr %23, null
  br i1 %24, label %25, label %27

25:                                               ; preds = %19
  %26 = call ptr @dlerror() #6
  br label %27

27:                                               ; preds = %25, %19
  %28 = load ptr, ptr %3, align 8
  %29 = call noundef ptr %28()
  store ptr %29, ptr %4, align 8
  %30 = load ptr, ptr %4, align 8
  %31 = call ptr @casadi_alloc(ptr noundef %30)
  store ptr %31, ptr %5, align 8
  call void @llvm.memcpy.p0.p0.i64(ptr align 16 %6, ptr align 16 @__const._Z16usage_c_with_memv.x_val, i64 32, i1 false)
  store double 5.000000e+00, ptr %7, align 8
  %32 = getelementptr inbounds [4 x double], ptr %6, i64 0, i64 0
  %33 = load ptr, ptr %5, align 8
  %34 = getelementptr inbounds %struct.casadi_mem, ptr %33, i32 0, i32 5
  %35 = load ptr, ptr %34, align 8
  %36 = getelementptr inbounds ptr, ptr %35, i64 0
  store ptr %32, ptr %36, align 8
  %37 = load ptr, ptr %5, align 8
  %38 = getelementptr inbounds %struct.casadi_mem, ptr %37, i32 0, i32 5
  %39 = load ptr, ptr %38, align 8
  %40 = getelementptr inbounds ptr, ptr %39, i64 1
  store ptr %7, ptr %40, align 8
  %41 = load ptr, ptr %5, align 8
  %42 = getelementptr inbounds %struct.casadi_mem, ptr %41, i32 0, i32 6
  %43 = load ptr, ptr %42, align 8
  %44 = getelementptr inbounds ptr, ptr %43, i64 0
  store ptr %8, ptr %44, align 8
  %45 = getelementptr inbounds [4 x double], ptr %9, i64 0, i64 0
  %46 = load ptr, ptr %5, align 8
  %47 = getelementptr inbounds %struct.casadi_mem, ptr %46, i32 0, i32 6
  %48 = load ptr, ptr %47, align 8
  %49 = getelementptr inbounds ptr, ptr %48, i64 1
  store ptr %45, ptr %49, align 8
  %50 = load ptr, ptr %5, align 8
  %51 = call i32 @casadi_eval(ptr noundef %50)
  %52 = load double, ptr %8, align 8
  %53 = call i32 (ptr, ...) @printf(ptr noundef @.str.25, double noundef %52)
  %54 = getelementptr inbounds [4 x double], ptr %9, i64 0, i64 0
  %55 = load double, ptr %54, align 16
  %56 = getelementptr inbounds [4 x double], ptr %9, i64 0, i64 1
  %57 = load double, ptr %56, align 8
  %58 = getelementptr inbounds [4 x double], ptr %9, i64 0, i64 2
  %59 = load double, ptr %58, align 16
  %60 = getelementptr inbounds [4 x double], ptr %9, i64 0, i64 3
  %61 = load double, ptr %60, align 8
  %62 = call i32 (ptr, ...) @printf(ptr noundef @.str.26, double noundef %55, double noundef %57, double noundef %59, double noundef %61)
  %63 = load ptr, ptr %5, align 8
  call void @casadi_free(ptr noundef %63)
  store i32 0, ptr %1, align 4
  br label %64

64:                                               ; preds = %27, %16
  %65 = load i32, ptr %1, align 4
  ret i32 %65
}