; Function Attrs: mustprogress uwtable
define noundef i32 @_Z16usage_c_with_memv() local_unnamed_addr #0 {
  %1 = alloca [4 x double], align 16
  %2 = alloca double, align 8
  %3 = alloca double, align 8
  %4 = alloca [4 x double], align 16
  %puts = tail call i32 @puts(ptr nonnull dereferenceable(1) @str.5)
  %puts11 = tail call i32 @puts(ptr nonnull dereferenceable(1) @str.6)
  %putchar = tail call i32 @putchar(i32 10)
  %5 = tail call ptr @dlopen(ptr noundef nonnull @.str.39, i32 noundef 1) #21
  %6 = icmp eq ptr %5, null
  %7 = tail call ptr @dlerror() #21
  br i1 %6, label %8, label %10

8:                                                ; preds = %0
  %9 = tail call i32 (ptr, ...) @printf(ptr noundef nonnull dereferenceable(1) @.str.40, ptr noundef %7)
  br label %85

10:                                               ; preds = %0
  %11 = tail call ptr @dlsym(ptr noundef nonnull %5, ptr noundef nonnull @.str.41) #21
  %12 = tail call ptr @dlerror() #21
  %.not = icmp eq ptr %12, null
  br i1 %.not, label %15, label %13

13:                                               ; preds = %10
  %14 = tail call ptr @dlerror() #21
  br label %15

15:                                               ; preds = %13, %10
  %16 = tail call noundef ptr %11()
  %17 = tail call noalias dereferenceable_or_null(112) ptr @malloc(i64 noundef 112) #26
  store ptr %16, ptr %17, align 8
  %18 = load ptr, ptr %16, align 8
  %.not.i.i = icmp eq ptr %18, null
  br i1 %.not.i.i, label %20, label %19

19:                                               ; preds = %15
  tail call void %18()
  br label %20

20:                                               ; preds = %19, %15
  %21 = getelementptr inbounds i8, ptr %16, i64 40
  %22 = load ptr, ptr %21, align 8
  %.not33.i.i = icmp eq ptr %22, null
  br i1 %.not33.i.i, label %25, label %23

23:                                               ; preds = %20
  %24 = tail call noundef i64 %22()
  br label %25

25:                                               ; preds = %23, %20
  %.pre.i.i = phi i64 [ %24, %23 ], [ 1, %20 ]
  %26 = getelementptr inbounds i8, ptr %17, i64 80
  store i64 %.pre.i.i, ptr %26, align 8
  %27 = getelementptr inbounds i8, ptr %16, i64 48
  %28 = load ptr, ptr %27, align 8
  %.not34.i.i = icmp eq ptr %28, null
  br i1 %.not34.i.i, label %31, label %29

29:                                               ; preds = %25
  %30 = tail call noundef i64 %28()
  br label %31

31:                                               ; preds = %29, %25
  %32 = phi i64 [ %30, %29 ], [ 1, %25 ]
  %33 = getelementptr inbounds i8, ptr %17, i64 88
  store i64 %32, ptr %33, align 8
  %34 = getelementptr inbounds i8, ptr %17, i64 8
  store i64 %.pre.i.i, ptr %34, align 8
  %35 = getelementptr inbounds i8, ptr %17, i64 16
  store i64 %32, ptr %35, align 8
  %36 = getelementptr inbounds i8, ptr %17, i64 24
  %37 = getelementptr inbounds i8, ptr %16, i64 88
  tail call void @llvm.memset.p0.i64(ptr noundef nonnull align 8 dereferenceable(16) %36, i8 0, i64 16, i1 false)
  %38 = load ptr, ptr %37, align 8
  %.not35.i.i = icmp eq ptr %38, null
  br i1 %.not35.i.i, label %casadi_alloc.exit, label %39

39:                                               ; preds = %31
  %40 = getelementptr inbounds i8, ptr %17, i64 32
  %41 = tail call noundef i32 %38(ptr noundef nonnull %34, ptr noundef nonnull %35, ptr noundef nonnull %36, ptr noundef nonnull %40)
  br label %casadi_alloc.exit

casadi_alloc.exit:                                ; preds = %31, %39
  %42 = getelementptr inbounds i8, ptr %16, i64 16
  %43 = load ptr, ptr %42, align 8
  %44 = tail call noundef i32 %43()
  %45 = getelementptr inbounds i8, ptr %17, i64 72
  store i32 %44, ptr %45, align 8
  %46 = getelementptr inbounds i8, ptr %17, i64 96
  %47 = getelementptr inbounds i8, ptr %17, i64 40
  tail call void @llvm.memset.p0.i64(ptr noundef nonnull align 8 dereferenceable(32) %47, i8 0, i64 32, i1 false)
  tail call void @llvm.memset.p0.i64(ptr noundef nonnull align 8 dereferenceable(16) %46, i8 0, i64 16, i1 false)
  %48 = tail call i32 @casadi_alloc_arrays(ptr noundef nonnull %17)
  tail call void @casadi_init_arrays(ptr noundef nonnull %17)
  call void @llvm.memcpy.p0.p0.i64(ptr noundef nonnull align 16 dereferenceable(32) %1, ptr noundef nonnull align 16 dereferenceable(32) @__const._Z16usage_c_with_memv.x_val, i64 32, i1 false)
  store double 5.000000e+00, ptr %2, align 8
  %49 = load ptr, ptr %47, align 8
  store ptr %1, ptr %49, align 8
  %50 = load ptr, ptr %47, align 8
  %51 = getelementptr inbounds i8, ptr %50, i64 8
  store ptr %2, ptr %51, align 8
  %52 = getelementptr inbounds i8, ptr %17, i64 48
  %53 = load ptr, ptr %52, align 8
  store ptr %3, ptr %53, align 8
  %54 = load ptr, ptr %52, align 8
  %55 = getelementptr inbounds i8, ptr %54, i64 8
  store ptr %4, ptr %55, align 8
  %56 = load ptr, ptr %17, align 8
  %57 = getelementptr inbounds i8, ptr %56, i64 96
  %58 = load ptr, ptr %57, align 8
  %59 = load ptr, ptr %47, align 8
  %60 = load ptr, ptr %52, align 8
  %61 = getelementptr inbounds i8, ptr %17, i64 56
  %62 = load ptr, ptr %61, align 8
  %63 = getelementptr inbounds i8, ptr %17, i64 64
  %64 = load ptr, ptr %63, align 8
  %65 = load i32, ptr %45, align 8
  %66 = call noundef i32 %58(ptr noundef %59, ptr noundef %60, ptr noundef %62, ptr noundef %64, i32 noundef %65)
  %67 = load double, ptr %3, align 8
  %68 = call i32 (ptr, ...) @printf(ptr noundef nonnull dereferenceable(1) @.str.25, double noundef %67)
  %69 = load double, ptr %4, align 16
  %70 = getelementptr inbounds i8, ptr %4, i64 8
  %71 = load double, ptr %70, align 8
  %72 = getelementptr inbounds i8, ptr %4, i64 16
  %73 = load double, ptr %72, align 16
  %74 = getelementptr inbounds i8, ptr %4, i64 24
  %75 = load double, ptr %74, align 8
  %76 = call i32 (ptr, ...) @printf(ptr noundef nonnull dereferenceable(1) @.str.26, double noundef %69, double noundef %71, double noundef %73, double noundef %75)
  call void @casadi_free_arrays(ptr noundef nonnull %17)
  %77 = load ptr, ptr %17, align 8
  %78 = getelementptr inbounds i8, ptr %77, i64 24
  %79 = load ptr, ptr %78, align 8
  %80 = load i32, ptr %45, align 8
  call void %79(i32 noundef %80)
  %81 = load ptr, ptr %17, align 8
  %82 = getelementptr inbounds i8, ptr %81, i64 8
  %83 = load ptr, ptr %82, align 8
  %.not.i.i12 = icmp eq ptr %83, null
  br i1 %.not.i.i12, label %casadi_free.exit, label %84

84:                                               ; preds = %casadi_alloc.exit
  call void %83()
  br label %casadi_free.exit

casadi_free.exit:                                 ; preds = %casadi_alloc.exit, %84
  call void @free(ptr noundef nonnull %17) #21
  br label %85

85:                                               ; preds = %casadi_free.exit, %8
  %.0 = phi i32 [ 1, %8 ], [ 0, %casadi_free.exit ]
  ret i32 %.0
}